target datalayout = "e-m:e-p270:32:32-p271:32:32-p272:64:64-i64:64-i128:128-f80:128-n8:16:32:64-S128"
target triple = "x86_64-pc-linux-gnu"

%struct.DECODER_CACHE_ENTRY = type { ptr, ptr, ptr, i32, ptr, ptr }

@.str = private unnamed_addr constant [47 x i8] c"../openssl/crypto/encode_decode/decoder_pkey.c\00", align 1

; Function Attrs: nounwind uwtable
define internal void @decoder_cache_entry_free(ptr noundef %0) #0 {
  %2 = alloca ptr, align 8
  store ptr %0, ptr %2, align 8, !tbaa !14
  %3 = load ptr, ptr %2, align 8, !tbaa !14
  %4 = icmp eq ptr %3, null
  br i1 %4, label %5, label %6

5:                                                ; preds = %1
  br label %23

6:                                                ; preds = %1
  %7 = load ptr, ptr %2, align 8, !tbaa !14
  %8 = getelementptr inbounds nuw %struct.DECODER_CACHE_ENTRY, ptr %7, i32 0, i32 0
  %9 = load ptr, ptr %8, align 8, !tbaa !25
  call void @CRYPTO_free(ptr noundef %9, ptr noundef @.str, i32 noundef 614)
  %10 = load ptr, ptr %2, align 8, !tbaa !14
  %11 = getelementptr inbounds nuw %struct.DECODER_CACHE_ENTRY, ptr %10, i32 0, i32 1
  %12 = load ptr, ptr %11, align 8, !tbaa !24
  call void @CRYPTO_free(ptr noundef %12, ptr noundef @.str, i32 noundef 615)
  %13 = load ptr, ptr %2, align 8, !tbaa !14
  %14 = getelementptr inbounds nuw %struct.DECODER_CACHE_ENTRY, ptr %13, i32 0, i32 2
  %15 = load ptr, ptr %14, align 8, !tbaa !26
  call void @CRYPTO_free(ptr noundef %15, ptr noundef @.str, i32 noundef 616)
  %16 = load ptr, ptr %2, align 8, !tbaa !14
  %17 = getelementptr inbounds nuw %struct.DECODER_CACHE_ENTRY, ptr %16, i32 0, i32 4
  %18 = load ptr, ptr %17, align 8, !tbaa !21
  call void @CRYPTO_free(ptr noundef %18, ptr noundef @.str, i32 noundef 617)
  %19 = load ptr, ptr %2, align 8, !tbaa !14
  %20 = getelementptr inbounds nuw %struct.DECODER_CACHE_ENTRY, ptr %19, i32 0, i32 5
  %21 = load ptr, ptr %20, align 8, !tbaa !30
  call void @OSSL_DECODER_CTX_free(ptr noundef %21)
  %22 = load ptr, ptr %2, align 8, !tbaa !14
  call void @CRYPTO_free(ptr noundef %22, ptr noundef @.str, i32 noundef 619)
  br label %23

23:                                               ; preds = %6, %5
  ret void
}